(lp1
(lp2
I2012
aI2013
acnumpy.core.multiarray
scalar
p3
(cnumpy
dtype
p4
(S'f8'
I0
I1
tRp5
(I3
S'<'
NNNI-1
I-1
I0
tbS'C\xac(\x8d\x8fL\xe0?'
tRp6
aa(lp7
I2012
aI2014
ag3
(g5
S'\x83y\xc1\xbc`^\xe0?'
tRp8
aa(lp9
I2013
aI2014
ag3
(g5
S'\x00\x00\x00\x00\x00\x00\xe0?'
tRp10
aa.