(lp1
(lp2
I2012
aI2013
acnumpy.core.multiarray
scalar
p3
(cnumpy
dtype
p4
(S'f8'
I0
I1
tRp5
(I3
S'<'
NNNI-1
I-1
I0
tbS'1\x0c\xc30\x0c\xc3\xe4?'
tRp6
aa(lp7
I2012
aI2014
ag3
(g5
S'\xd5TSM5\xd5\xe4?'
tRp8
aa(lp9
I2013
aI2014
ag3
(g5
S'UUUUUU\xe5?'
tRp10
aa.