(lp1
(lp2
I2009
aI2010
acnumpy.core.multiarray
scalar
p3
(cnumpy
dtype
p4
(S'f8'
I0
I1
tRp5
(I3
S'<'
NNNI-1
I-1
I0
tbS'VUUUUU\xb5?'
tRp6
aa(lp7
I2009
aI2011
ag3
(g5
S'hgJ\xaf\xbf8\xa9?'
tRp8
aa(lp9
I2009
aI2012
ag3
(g5
S'4,\xb8T\xb6w\x9d?'
tRp10
aa(lp11
I2009
aI2013
ag3
(g5
S'\xb8\x16\tj*D\x9b?'
tRp12
aa(lp13
I2009
aI2014
ag3
(g5
S'\xeb\x0f\xf4H\t9\xa5?'
tRp14
aa(lp15
I2009
aI2015
ag3
(g5
S',T]>\xb3\x0f\xa4?'
tRp16
aa(lp17
I2010
aI2011
ag3
(g5
S'cK\xf0m\xfe\n\xe3?'
tRp18
aa(lp19
I2010
aI2012
ag3
(g5
S'\x94\xddo\x94\xddo\xe4?'
tRp20
aa(lp21
I2010
aI2013
ag3
(g5
S'\x1b\xfb47|\xd7\xe4?'
tRp22
aa(lp23
I2010
aI2014
ag3
(g5
S'iS\xa2M\x896\xe5?'
tRp24
aa(lp25
I2010
aI2015
ag3
(g5
S'\xf5\xf6\x97v\x18\xb0\xe5?'
tRp26
aa(lp27
I2011
aI2012
ag3
(g5
S'\xb8\x94\x80\xe4j<\xe4?'
tRp28
aa(lp29
I2011
aI2013
ag3
(g5
S'\xedrk\xcdB\xfb\xe3?'
tRp30
aa(lp31
I2011
aI2014
ag3
(g5
S'N5\x04\xa2\xddT\xe3?'
tRp32
aa(lp33
I2011
aI2015
ag3
(g5
S'\xfe\xeb\xcc\x8d\x82\x12\xe3?'
tRp34
aa(lp35
I2012
aI2013
ag3
(g5
S'\x90g\xb41aR\xe5?'
tRp36
aa(lp37
I2012
aI2014
ag3
(g5
S'\xbc\x86-\xa6\xe1;\xe4?'
tRp38
aa(lp39
I2012
aI2015
ag3
(g5
S'y\xe5o\xabt\xe2\xe3?'
tRp40
aa(lp41
I2013
aI2014
ag3
(g5
S'9\x8e\xe38\x8ec\xe4?'
tRp42
aa(lp43
I2013
aI2015
ag3
(g5
S'\xfc#\x05\x939\x08\xe4?'
tRp44
aa(lp45
I2014
aI2015
ag3
(g5
S'\n\xd7\xa3p=\n\xe7?'
tRp46
aa.